; Function Attrs: mustprogress uwtable
define hidden void @_ZN9benchmark11ColorPrintfERSoNS_8LogColorEPKcz(ptr noundef nonnull align 8 dereferenceable(8) %0, i32 noundef %1, ptr noundef readonly captures(none) %2, ...) local_unnamed_addr #3 {
  %4 = alloca [1 x %struct.__va_list_tag], align 16
  call void @llvm.lifetime.start.p0(i64 24, ptr nonnull %4) #15
  call void @llvm.va_start.p0(ptr nonnull %4)
  call void @_ZN9benchmark11ColorPrintfERSoNS_8LogColorEPKcP13__va_list_tag(ptr noundef nonnull align 8 dereferenceable(8) %0, i32 noundef %1, ptr noundef %2, ptr noundef nonnull %4)
  call void @llvm.va_end.p0(ptr nonnull %4)
  call void @llvm.lifetime.end.p0(i64 24, ptr nonnull %4) #15
  ret void
}